; Function Attrs: mustprogress uwtable
define void @_ZNK5arrow10Decimal12815ToIntegerStringB5cxx11Ev(ptr noalias nonnull sret(%"class.std::__cxx11::basic_string") align 8 %agg.result, ptr nocapture noundef nonnull readonly align 8 dereferenceable(16) %this) local_unnamed_addr #0 align 2 personality ptr @__gxx_personality_v0 {
entry:
  %abs = alloca %"class.arrow::Decimal128", align 16
  %ref.tmp = alloca %"struct.std::array", align 16
  %ref.tmp10 = alloca %"struct.std::array", align 8
  tail call void @_ZNSt7__cxx1112basic_stringIcSt11char_traitsIcESaIcEEC1Ev(ptr noundef nonnull align 8 dereferenceable(32) %agg.result) #18
  %arrayidx.i.i.i = getelementptr inbounds i8, ptr %this, i64 8
  %0 = load i64, ptr %arrayidx.i.i.i, align 8
  %cmp = icmp slt i64 %0, 0
  br i1 %cmp, label %if.then, label %if.else

if.then:                                          ; preds = %entry
  invoke void @_ZNSt7__cxx1112basic_stringIcSt11char_traitsIcESaIcEE9push_backEc(ptr noundef nonnull align 8 dereferenceable(32) %agg.result, i8 noundef signext 45)
          to label %invoke.cont2 unwind label %lpad

invoke.cont2:                                     ; preds = %if.then
  call void @llvm.memcpy.p0.p0.i64(ptr noundef nonnull align 16 dereferenceable(16) %abs, ptr noundef nonnull align 8 dereferenceable(16) %this, i64 16, i1 false)
  %call4 = invoke noundef nonnull align 8 dereferenceable(16) ptr @_ZN5arrow15BasicDecimal1286NegateEv(ptr noundef nonnull align 8 dereferenceable(16) %abs)
          to label %invoke.cont3 unwind label %lpad

invoke.cont3:                                     ; preds = %invoke.cont2
  %1 = load <2 x i64>, ptr %abs, align 16
  store <2 x i64> %1, ptr %ref.tmp, align 16
  br label %if.else.invoke

lpad:                                             ; preds = %if.else.invoke, %invoke.cont2, %if.then
  %2 = landingpad { ptr, i32 }
          cleanup
  call void @_ZNSt7__cxx1112basic_stringIcSt11char_traitsIcESaIcEED1Ev(ptr noundef nonnull align 8 dereferenceable(32) %agg.result) #18
  resume { ptr, i32 } %2

if.else:                                          ; preds = %entry
  %3 = load i64, ptr %this, align 8
  store i64 %3, ptr %ref.tmp10, align 8
  %arrayinit.element15 = getelementptr inbounds i8, ptr %ref.tmp10, i64 8
  store i64 %0, ptr %arrayinit.element15, align 8
  br label %if.else.invoke

if.else.invoke:                                   ; preds = %invoke.cont3, %if.else
  %4 = phi ptr [ %ref.tmp10, %if.else ], [ %ref.tmp, %invoke.cont3 ]
  invoke fastcc void @_ZN5arrowL31AppendLittleEndianArrayToStringILm2EEEvRKSt5arrayImXT_EEPNSt7__cxx1112basic_stringIcSt11char_traitsIcESaIcEEE(ptr noundef nonnull align 8 dereferenceable(16) %4, ptr noundef nonnull %agg.result)
          to label %nrvo.skipdtor unwind label %lpad

nrvo.skipdtor:                                    ; preds = %if.else.invoke
  ret void
}